target datalayout = "e-m:e-p270:32:32-p271:32:32-p272:64:64-i64:64-i128:128-f80:128-n8:16:32:64-S128"
target triple = "x86_64-pc-linux-gnu"

@.str = private unnamed_addr constant [29 x i8] c"Tcl_Init() call failed - %s\0A\00", align 1
@.str.1 = private unnamed_addr constant [6 x i8] c"yosys\00", align 1
@.str.2 = private unnamed_addr constant [16 x i8] c"rtlil::get_attr\00", align 1
@.str.3 = private unnamed_addr constant [16 x i8] c"rtlil::has_attr\00", align 1
@.str.4 = private unnamed_addr constant [16 x i8] c"rtlil::set_attr\00", align 1
@.str.5 = private unnamed_addr constant [17 x i8] c"rtlil::get_param\00", align 1
@.str.6 = private unnamed_addr constant [17 x i8] c"rtlil::set_param\00", align 1

; Function Attrs: mustprogress uwtable
define noundef i32 @_ZN5Yosys20yosys_tcl_iterp_initEP10Tcl_Interp(ptr noundef %0) #5 {
  %2 = alloca ptr, align 8
  store ptr %0, ptr %2, align 8, !tbaa !45
  %3 = load ptr, ptr %2, align 8, !tbaa !45
  %4 = call i32 @Tcl_Init(ptr noundef %3)
  %5 = icmp ne i32 %4, 0
  br i1 %5, label %6, label %9

6:                                                ; preds = %1
  %7 = call i32 @Tcl_GetErrno()
  %8 = call ptr @Tcl_ErrnoMsg(i32 noundef %7)
  call void (ptr, ...) @_ZN5Yosys11log_warningEPKcz(ptr noundef @.str, ptr noundef %8)
  br label %9

9:                                                ; preds = %6, %1
  %10 = load ptr, ptr %2, align 8, !tbaa !45
  %11 = call ptr @Tcl_CreateCommand(ptr noundef %10, ptr noundef @.str.1, ptr noundef @_ZN5YosysL13tcl_yosys_cmdEPvP10Tcl_InterpiPPKc, ptr noundef null, ptr noundef null)
  %12 = load ptr, ptr %2, align 8, !tbaa !45
  %13 = call ptr @Tcl_CreateCommand(ptr noundef %12, ptr noundef @.str.2, ptr noundef @_ZN5YosysL12tcl_get_attrEPvP10Tcl_InterpiPPKc, ptr noundef null, ptr noundef null)
  %14 = load ptr, ptr %2, align 8, !tbaa !45
  %15 = call ptr @Tcl_CreateCommand(ptr noundef %14, ptr noundef @.str.3, ptr noundef @_ZN5YosysL12tcl_has_attrEPvP10Tcl_InterpiPPKc, ptr noundef null, ptr noundef null)
  %16 = load ptr, ptr %2, align 8, !tbaa !45
  %17 = call ptr @Tcl_CreateObjCommand(ptr noundef %16, ptr noundef @.str.4, ptr noundef @_ZN5YosysL12tcl_set_attrEPvP10Tcl_InterpiPKP7Tcl_Obj, ptr noundef null, ptr noundef null)
  %18 = load ptr, ptr %2, align 8, !tbaa !45
  %19 = call ptr @Tcl_CreateCommand(ptr noundef %18, ptr noundef @.str.5, ptr noundef @_ZN5YosysL13tcl_get_paramEPvP10Tcl_InterpiPPKc, ptr noundef null, ptr noundef null)
  %20 = load ptr, ptr %2, align 8, !tbaa !45
  %21 = call ptr @Tcl_CreateObjCommand(ptr noundef %20, ptr noundef @.str.6, ptr noundef @_ZN5YosysL13tcl_set_paramEPvP10Tcl_InterpiPKP7Tcl_Obj, ptr noundef null, ptr noundef null)
  ret i32 0
}