; Function Attrs: mustprogress uwtable
define noundef i32 @_ZN5Yosys20yosys_tcl_iterp_initEP10Tcl_Interp(ptr noundef %0) local_unnamed_addr #4 {
  %2 = tail call i32 @Tcl_Init(ptr noundef %0)
  %.not = icmp eq i32 %2, 0
  br i1 %.not, label %6, label %3

3:                                                ; preds = %1
  %4 = tail call i32 @Tcl_GetErrno()
  %5 = tail call ptr @Tcl_ErrnoMsg(i32 noundef %4)
  tail call void (ptr, ...) @_ZN5Yosys11log_warningEPKcz(ptr noundef nonnull @.str, ptr noundef %5)
  br label %6

6:                                                ; preds = %3, %1
  %7 = tail call ptr @Tcl_CreateCommand(ptr noundef %0, ptr noundef nonnull @.str.1, ptr noundef nonnull @_ZN5YosysL13tcl_yosys_cmdEPvP10Tcl_InterpiPPKc, ptr noundef null, ptr noundef null)
  %8 = tail call ptr @Tcl_CreateCommand(ptr noundef %0, ptr noundef nonnull @.str.2, ptr noundef nonnull @_ZN5YosysL12tcl_get_attrEPvP10Tcl_InterpiPPKc, ptr noundef null, ptr noundef null)
  %9 = tail call ptr @Tcl_CreateCommand(ptr noundef %0, ptr noundef nonnull @.str.3, ptr noundef nonnull @_ZN5YosysL12tcl_has_attrEPvP10Tcl_InterpiPPKc, ptr noundef null, ptr noundef null)
  %10 = tail call ptr @Tcl_CreateObjCommand(ptr noundef %0, ptr noundef nonnull @.str.4, ptr noundef nonnull @_ZN5YosysL12tcl_set_attrEPvP10Tcl_InterpiPKP7Tcl_Obj, ptr noundef null, ptr noundef null)
  %11 = tail call ptr @Tcl_CreateCommand(ptr noundef %0, ptr noundef nonnull @.str.5, ptr noundef nonnull @_ZN5YosysL13tcl_get_paramEPvP10Tcl_InterpiPPKc, ptr noundef null, ptr noundef null)
  %12 = tail call ptr @Tcl_CreateObjCommand(ptr noundef %0, ptr noundef nonnull @.str.6, ptr noundef nonnull @_ZN5YosysL13tcl_set_paramEPvP10Tcl_InterpiPKP7Tcl_Obj, ptr noundef null, ptr noundef null)
  ret i32 0
}